target datalayout = "e-m:e-p270:32:32-p271:32:32-p272:64:64-i64:64-i128:128-f80:128-n8:16:32:64-S128"
target triple = "x86_64-pc-linux-gnu"

%struct.ProcSignalHeader = type { %struct.pg_atomic_uint64, [0 x %struct.ProcSignalSlot] }
%struct.pg_atomic_uint64 = type { i64 }
%struct.ProcSignalSlot = type { %struct.pg_atomic_uint32, i8, i32, [14 x i32], i8, %struct.pg_atomic_uint64, %struct.pg_atomic_uint32, %struct.ConditionVariable }
%struct.pg_atomic_uint32 = type { i32 }
%struct.ConditionVariable = type { i8, %struct.proclist_head }
%struct.proclist_head = type { i32, i32 }

@MaxBackends = external global i32, align 4
@ProcSignal = internal global ptr null, align 8
@MyProcNumber = external global i32, align 4
@.str.1 = private unnamed_addr constant [21 x i8] c"MyProcNumber not set\00", align 1
@.str.2 = private unnamed_addr constant [13 x i8] c"procsignal.c\00", align 1
@__func__.ProcSignalInit = private unnamed_addr constant [15 x i8] c"ProcSignalInit\00", align 1
@.str.3 = private unnamed_addr constant [54 x i8] c"unexpected MyProcNumber %d in ProcSignalInit (max %d)\00", align 1
@.str.4 = private unnamed_addr constant [62 x i8] c"process %d taking over ProcSignal slot %d, but it's not empty\00", align 1
@MyProcPid = external global i32, align 4
@MyProcSignalSlot = internal global ptr null, align 8

; Function Attrs: inlinehint nounwind uwtable
define internal void @pg_atomic_write_u64_impl(ptr noundef %0, i64 noundef %1) #3 {
  %3 = alloca ptr, align 8
  %4 = alloca i64, align 8
  store ptr %0, ptr %3, align 8
  store i64 %1, ptr %4, align 8
  %5 = load i64, ptr %4, align 8
  %6 = load ptr, ptr %3, align 8
  %7 = getelementptr inbounds nuw %struct.pg_atomic_uint64, ptr %6, i32 0, i32 0
  store volatile i64 %5, ptr %7, align 8
  ret void
}

; Function Attrs: inlinehint nounwind uwtable
define internal i64 @pg_atomic_read_u64_impl(ptr noundef %0) #3 {
  %2 = alloca ptr, align 8
  store ptr %0, ptr %2, align 8
  %3 = load ptr, ptr %2, align 8
  %4 = getelementptr inbounds nuw %struct.pg_atomic_uint64, ptr %3, i32 0, i32 0
  %5 = load volatile i64, ptr %4, align 8
  ret i64 %5
}

; Function Attrs: inlinehint nounwind uwtable
define internal void @pg_atomic_write_u32_impl(ptr noundef %0, i32 noundef %1) #3 {
  %3 = alloca ptr, align 8
  %4 = alloca i32, align 4
  store ptr %0, ptr %3, align 8
  store i32 %1, ptr %4, align 4
  %5 = load i32, ptr %4, align 4
  %6 = load ptr, ptr %3, align 8
  %7 = getelementptr inbounds nuw %struct.pg_atomic_uint32, ptr %6, i32 0, i32 0
  store volatile i32 %5, ptr %7, align 4
  ret void
}

; Function Attrs: inlinehint nounwind uwtable
define internal i32 @pg_atomic_read_u32_impl(ptr noundef %0) #3 {
  %2 = alloca ptr, align 8
  store ptr %0, ptr %2, align 8
  %3 = load ptr, ptr %2, align 8
  %4 = getelementptr inbounds nuw %struct.pg_atomic_uint32, ptr %3, i32 0, i32 0
  %5 = load volatile i32, ptr %4, align 4
  ret i32 %5
}

; Function Attrs: inlinehint nounwind uwtable
define internal void @pg_atomic_write_u64(ptr noundef %0, i64 noundef %1) #3 {
  %3 = alloca ptr, align 8
  %4 = alloca i64, align 8
  store ptr %0, ptr %3, align 8
  store i64 %1, ptr %4, align 8
  %5 = load ptr, ptr %3, align 8
  %6 = load i64, ptr %4, align 8
  call void @pg_atomic_write_u64_impl(ptr noundef %5, i64 noundef %6)
  ret void
}

; Function Attrs: inlinehint nounwind uwtable
define internal i64 @pg_atomic_read_u64(ptr noundef %0) #3 {
  %2 = alloca ptr, align 8
  store ptr %0, ptr %2, align 8
  %3 = load ptr, ptr %2, align 8
  %4 = call i64 @pg_atomic_read_u64_impl(ptr noundef %3)
  ret i64 %4
}

; Function Attrs: inlinehint nounwind uwtable
define internal void @pg_atomic_write_u32(ptr noundef %0, i32 noundef %1) #3 {
  %3 = alloca ptr, align 8
  %4 = alloca i32, align 4
  store ptr %0, ptr %3, align 8
  store i32 %1, ptr %4, align 4
  %5 = load ptr, ptr %3, align 8
  %6 = load i32, ptr %4, align 4
  call void @pg_atomic_write_u32_impl(ptr noundef %5, i32 noundef %6)
  ret void
}

; Function Attrs: inlinehint nounwind uwtable
define internal i32 @pg_atomic_read_u32(ptr noundef %0) #3 {
  %2 = alloca ptr, align 8
  store ptr %0, ptr %2, align 8
  %3 = load ptr, ptr %2, align 8
  %4 = call i32 @pg_atomic_read_u32_impl(ptr noundef %3)
  ret i32 %4
}

; Function Attrs: inlinehint nounwind uwtable
define internal i32 @tas(ptr noundef %0) #3 {
  %2 = alloca ptr, align 8
  %3 = alloca i8, align 1
  store ptr %0, ptr %2, align 8
  call void @llvm.lifetime.start.p0(i64 1, ptr %3) #11
  store i8 1, ptr %3, align 1
  %4 = load i8, ptr %3, align 1
  %5 = load ptr, ptr %2, align 8
  %6 = call i8 asm sideeffect "\09lock\09\09\09\0A\09xchgb\09$0,$1\09\0A", "=q,=*m,0,*m,~{memory},~{cc},~{dirflag},~{fpsr},~{flags}"(ptr elementtype(i8) %5, i8 %4, ptr elementtype(i8) %5) #11, !srcloc !13
  store i8 %6, ptr %3, align 1
  %7 = load i8, ptr %3, align 1
  %8 = zext i8 %7 to i32
  call void @llvm.lifetime.end.p0(i64 1, ptr %3) #11
  ret i32 %8
}

; Function Attrs: nounwind uwtable
define dso_local void @ProcSignalInit(i1 noundef zeroext %0, i32 noundef %1) #0 {
  %3 = alloca i8, align 1
  %4 = alloca i32, align 4
  %5 = alloca ptr, align 8
  %6 = alloca i64, align 8
  %7 = alloca ptr, align 8
  %8 = alloca i32, align 4
  %9 = alloca i64, align 8
  %10 = alloca ptr, align 8
  %11 = alloca ptr, align 8
  %12 = zext i1 %0 to i8
  store i8 %12, ptr %3, align 1
  store i32 %1, ptr %4, align 4
  call void @llvm.lifetime.start.p0(i64 8, ptr %5) #11
  call void @llvm.lifetime.start.p0(i64 8, ptr %6) #11
  %13 = load i32, ptr @MyProcNumber, align 4
  %14 = icmp slt i32 %13, 0
  br i1 %14, label %15, label %26

15:                                               ; preds = %2
  br label %16

16:                                               ; preds = %15
  br i1 true, label %17, label %19

17:                                               ; preds = %16
  %18 = call zeroext i1 @errstart_cold(i32 noundef 21, ptr noundef null) #12
  br i1 %18, label %21, label %23

19:                                               ; preds = %16
  %20 = call zeroext i1 @errstart(i32 noundef 21, ptr noundef null)
  br i1 %20, label %21, label %23

21:                                               ; preds = %19, %17
  %22 = call i32 (ptr, ...) @errmsg_internal(ptr noundef @.str.1)
  call void @errfinish(ptr noundef @.str.2, i32 noundef 172, ptr noundef @__func__.ProcSignalInit)
  br label %23

23:                                               ; preds = %21, %19, %17
  unreachable

24:                                               ; No predecessors!
  br label %25

25:                                               ; preds = %24
  br label %26

26:                                               ; preds = %25, %2
  %27 = load i32, ptr @MyProcNumber, align 4
  %28 = load i32, ptr @MaxBackends, align 4
  %29 = add i32 %28, 6
  %30 = icmp sge i32 %27, %29
  br i1 %30, label %31, label %45

31:                                               ; preds = %26
  br label %32

32:                                               ; preds = %31
  br i1 true, label %33, label %35

33:                                               ; preds = %32
  %34 = call zeroext i1 @errstart_cold(i32 noundef 21, ptr noundef null) #12
  br i1 %34, label %37, label %42

35:                                               ; preds = %32
  %36 = call zeroext i1 @errstart(i32 noundef 21, ptr noundef null)
  br i1 %36, label %37, label %42

37:                                               ; preds = %35, %33
  %38 = load i32, ptr @MyProcNumber, align 4
  %39 = load i32, ptr @MaxBackends, align 4
  %40 = add i32 %39, 6
  %41 = call i32 (ptr, ...) @errmsg_internal(ptr noundef @.str.3, i32 noundef %38, i32 noundef %40)
  call void @errfinish(ptr noundef @.str.2, i32 noundef 174, ptr noundef @__func__.ProcSignalInit)
  br label %42

42:                                               ; preds = %37, %35, %33
  unreachable

43:                                               ; No predecessors!
  br label %44

44:                                               ; preds = %43
  br label %45

45:                                               ; preds = %44, %26
  %46 = load ptr, ptr @ProcSignal, align 8
  %47 = getelementptr inbounds nuw %struct.ProcSignalHeader, ptr %46, i32 0, i32 1
  %48 = load i32, ptr @MyProcNumber, align 4
  %49 = sext i32 %48 to i64
  %50 = getelementptr inbounds [0 x %struct.ProcSignalSlot], ptr %47, i64 0, i64 %49
  store ptr %50, ptr %5, align 8
  %51 = load ptr, ptr %5, align 8
  %52 = getelementptr inbounds nuw %struct.ProcSignalSlot, ptr %51, i32 0, i32 4
  %53 = call i32 @tas(ptr noundef %52)
  %54 = icmp ne i32 %53, 0
  br i1 %54, label %55, label %59

55:                                               ; preds = %45
  %56 = load ptr, ptr %5, align 8
  %57 = getelementptr inbounds nuw %struct.ProcSignalSlot, ptr %56, i32 0, i32 4
  %58 = call i32 @s_lock(ptr noundef %57, ptr noundef @.str.2, i32 noundef 178, ptr noundef @__func__.ProcSignalInit)
  br label %60

59:                                               ; preds = %45
  br label %60

60:                                               ; preds = %59, %55
  %61 = load ptr, ptr %5, align 8
  %62 = getelementptr inbounds nuw %struct.ProcSignalSlot, ptr %61, i32 0, i32 0
  %63 = call i32 @pg_atomic_read_u32(ptr noundef %62)
  %64 = icmp ne i32 %63, 0
  br i1 %64, label %65, label %83

65:                                               ; preds = %60
  br label %66

66:                                               ; preds = %65
  call void asm sideeffect "", "~{memory},~{dirflag},~{fpsr},~{flags}"() #11, !srcloc !10
  %67 = load ptr, ptr %5, align 8
  %68 = getelementptr inbounds nuw %struct.ProcSignalSlot, ptr %67, i32 0, i32 4
  store i8 0, ptr %68, align 4
  br label %69

69:                                               ; preds = %66
  br label %70

70:                                               ; preds = %69
  br label %71

71:                                               ; preds = %70
  br i1 false, label %72, label %74

72:                                               ; preds = %71
  %73 = call zeroext i1 @errstart_cold(i32 noundef 15, ptr noundef null) #12
  br i1 %73, label %76, label %80

74:                                               ; preds = %71
  %75 = call zeroext i1 @errstart(i32 noundef 15, ptr noundef null)
  br i1 %75, label %76, label %80

76:                                               ; preds = %74, %72
  %77 = load i32, ptr @MyProcPid, align 4
  %78 = load i32, ptr @MyProcNumber, align 4
  %79 = call i32 (ptr, ...) @errmsg_internal(ptr noundef @.str.4, i32 noundef %77, i32 noundef %78)
  call void @errfinish(ptr noundef @.str.2, i32 noundef 183, ptr noundef @__func__.ProcSignalInit)
  br label %80

80:                                               ; preds = %76, %74, %72
  br label %81

81:                                               ; preds = %80
  br label %82

82:                                               ; preds = %81
  br label %83

83:                                               ; preds = %82, %60
  br label %84

84:                                               ; preds = %83
  call void @llvm.lifetime.start.p0(i64 8, ptr %7) #11
  %85 = load ptr, ptr %5, align 8
  %86 = getelementptr inbounds nuw %struct.ProcSignalSlot, ptr %85, i32 0, i32 3
  %87 = getelementptr inbounds [14 x i32], ptr %86, i64 0, i64 0
  store ptr %87, ptr %7, align 8
  call void @llvm.lifetime.start.p0(i64 4, ptr %8) #11
  store i32 0, ptr %8, align 4
  call void @llvm.lifetime.start.p0(i64 8, ptr %9) #11
  store i64 56, ptr %9, align 8
  %88 = load ptr, ptr %7, align 8
  %89 = ptrtoint ptr %88 to i64
  %90 = and i64 %89, 7
  %91 = icmp eq i64 %90, 0
  br i1 %91, label %92, label %115

92:                                               ; preds = %84
  %93 = load i64, ptr %9, align 8
  %94 = and i64 %93, 7
  %95 = icmp eq i64 %94, 0
  br i1 %95, label %96, label %115

96:                                               ; preds = %92
  %97 = load i32, ptr %8, align 4
  %98 = icmp eq i32 %97, 0
  br i1 %98, label %99, label %115

99:                                               ; preds = %96
  %100 = load i64, ptr %9, align 8
  %101 = icmp ule i64 %100, 1024
  br i1 %101, label %102, label %115

102:                                              ; preds = %99
  call void @llvm.lifetime.start.p0(i64 8, ptr %10) #11
  %103 = load ptr, ptr %7, align 8
  store ptr %103, ptr %10, align 8
  call void @llvm.lifetime.start.p0(i64 8, ptr %11) #11
  %104 = load ptr, ptr %10, align 8
  %105 = load i64, ptr %9, align 8
  %106 = getelementptr inbounds nuw i8, ptr %104, i64 %105
  store ptr %106, ptr %11, align 8
  br label %107

107:                                              ; preds = %111, %102
  %108 = load ptr, ptr %10, align 8
  %109 = load ptr, ptr %11, align 8
  %110 = icmp ult ptr %108, %109
  br i1 %110, label %111, label %114

111:                                              ; preds = %107
  %112 = load ptr, ptr %10, align 8
  %113 = getelementptr inbounds nuw i64, ptr %112, i32 1
  store ptr %113, ptr %10, align 8
  store i64 0, ptr %112, align 8
  br label %107, !llvm.loop !11

114:                                              ; preds = %107
  call void @llvm.lifetime.end.p0(i64 8, ptr %11) #11
  call void @llvm.lifetime.end.p0(i64 8, ptr %10) #11
  br label %120

115:                                              ; preds = %99, %96, %92, %84
  %116 = load ptr, ptr %7, align 8
  %117 = load i32, ptr %8, align 4
  %118 = trunc i32 %117 to i8
  %119 = load i64, ptr %9, align 8
  call void @llvm.memset.p0.i64(ptr align 1 %116, i8 %118, i64 %119, i1 false)
  br label %120

120:                                              ; preds = %115, %114
  call void @llvm.lifetime.end.p0(i64 8, ptr %9) #11
  call void @llvm.lifetime.end.p0(i64 4, ptr %8) #11
  call void @llvm.lifetime.end.p0(i64 8, ptr %7) #11
  br label %121

121:                                              ; preds = %120
  br label %122

122:                                              ; preds = %121
  %123 = load ptr, ptr %5, align 8
  %124 = getelementptr inbounds nuw %struct.ProcSignalSlot, ptr %123, i32 0, i32 6
  call void @pg_atomic_write_u32(ptr noundef %124, i32 noundef 0)
  %125 = load ptr, ptr @ProcSignal, align 8
  %126 = getelementptr inbounds nuw %struct.ProcSignalHeader, ptr %125, i32 0, i32 0
  %127 = call i64 @pg_atomic_read_u64(ptr noundef %126)
  store i64 %127, ptr %6, align 8
  %128 = load ptr, ptr %5, align 8
  %129 = getelementptr inbounds nuw %struct.ProcSignalSlot, ptr %128, i32 0, i32 5
  %130 = load i64, ptr %6, align 8
  call void @pg_atomic_write_u64(ptr noundef %129, i64 noundef %130)
  %131 = load i8, ptr %3, align 1, !range !4, !noundef !5
  %132 = trunc i8 %131 to i1
  %133 = load ptr, ptr %5, align 8
  %134 = getelementptr inbounds nuw %struct.ProcSignalSlot, ptr %133, i32 0, i32 1
  %135 = zext i1 %132 to i8
  store i8 %135, ptr %134, align 4
  %136 = load i32, ptr %4, align 4
  %137 = load ptr, ptr %5, align 8
  %138 = getelementptr inbounds nuw %struct.ProcSignalSlot, ptr %137, i32 0, i32 2
  store i32 %136, ptr %138, align 8
  %139 = load ptr, ptr %5, align 8
  %140 = getelementptr inbounds nuw %struct.ProcSignalSlot, ptr %139, i32 0, i32 0
  %141 = load i32, ptr @MyProcPid, align 4
  call void @pg_atomic_write_u32(ptr noundef %140, i32 noundef %141)
  br label %142

142:                                              ; preds = %122
  call void asm sideeffect "", "~{memory},~{dirflag},~{fpsr},~{flags}"() #11, !srcloc !12
  %143 = load ptr, ptr %5, align 8
  %144 = getelementptr inbounds nuw %struct.ProcSignalSlot, ptr %143, i32 0, i32 4
  store i8 0, ptr %144, align 4
  br label %145

145:                                              ; preds = %142
  br label %146

146:                                              ; preds = %145
  %147 = load ptr, ptr %5, align 8
  store ptr %147, ptr @MyProcSignalSlot, align 8
  call void @on_shmem_exit(ptr noundef @CleanupProcSignalState, i64 noundef 0)
  call void @llvm.lifetime.end.p0(i64 8, ptr %6) #11
  call void @llvm.lifetime.end.p0(i64 8, ptr %5) #11
  ret void
}