; Function Attrs: nounwind uwtable
define dso_local void @ProcSignalInit(i1 noundef zeroext %0, i32 noundef %1) local_unnamed_addr #0 {
  %3 = load i32, ptr @MyProcNumber, align 4
  %4 = icmp slt i32 %3, 0
  br i1 %4, label %5, label %8

5:                                                ; preds = %2
  %6 = tail call zeroext i1 @errstart_cold(i32 noundef 21, ptr noundef null) #12
  tail call void @llvm.assume(i1 %6)
  %7 = tail call i32 (ptr, ...) @errmsg_internal(ptr noundef nonnull @.str.1) #11
  tail call void @errfinish(ptr noundef nonnull @.str.2, i32 noundef 172, ptr noundef nonnull @__func__.ProcSignalInit) #11
  unreachable

8:                                                ; preds = %2
  %9 = load i32, ptr @MaxBackends, align 4
  %10 = add i32 %9, 6
  %.not = icmp slt i32 %3, %10
  br i1 %.not, label %17, label %11

11:                                               ; preds = %8
  %12 = tail call zeroext i1 @errstart_cold(i32 noundef 21, ptr noundef null) #12
  tail call void @llvm.assume(i1 %12)
  %13 = load i32, ptr @MyProcNumber, align 4
  %14 = load i32, ptr @MaxBackends, align 4
  %15 = add i32 %14, 6
  %16 = tail call i32 (ptr, ...) @errmsg_internal(ptr noundef nonnull @.str.3, i32 noundef %13, i32 noundef %15) #11
  tail call void @errfinish(ptr noundef nonnull @.str.2, i32 noundef 174, ptr noundef nonnull @__func__.ProcSignalInit) #11
  unreachable

17:                                               ; preds = %8
  %18 = load ptr, ptr @ProcSignal, align 8
  %19 = getelementptr inbounds nuw i8, ptr %18, i64 8
  %20 = zext nneg i32 %3 to i64
  %21 = getelementptr inbounds nuw [0 x %struct.ProcSignalSlot], ptr %19, i64 0, i64 %20
  %22 = getelementptr inbounds nuw i8, ptr %21, i64 68
  %23 = tail call i8 asm sideeffect "\09lock\09\09\09\0A\09xchgb\09$0,$1\09\0A", "=q,=*m,0,*m,~{memory},~{cc},~{dirflag},~{fpsr},~{flags}"(ptr nonnull elementtype(i8) %22, i8 1, ptr nonnull elementtype(i8) %22) #11, !srcloc !9
  %.not31 = icmp eq i8 %23, 0
  br i1 %.not31, label %26, label %24

24:                                               ; preds = %17
  %25 = tail call i32 @s_lock(ptr noundef nonnull %22, ptr noundef nonnull @.str.2, i32 noundef 178, ptr noundef nonnull @__func__.ProcSignalInit) #11
  br label %26

26:                                               ; preds = %17, %24
  %27 = load volatile i32, ptr %21, align 4
  %.not32 = icmp eq i32 %27, 0
  br i1 %.not32, label %34, label %28

28:                                               ; preds = %26
  tail call void asm sideeffect "", "~{memory},~{dirflag},~{fpsr},~{flags}"() #11, !srcloc !10
  store i8 0, ptr %22, align 4
  %29 = tail call zeroext i1 @errstart(i32 noundef 15, ptr noundef null) #11
  br i1 %29, label %30, label %34

30:                                               ; preds = %28
  %31 = load i32, ptr @MyProcPid, align 4
  %32 = load i32, ptr @MyProcNumber, align 4
  %33 = tail call i32 (ptr, ...) @errmsg_internal(ptr noundef nonnull @.str.4, i32 noundef %31, i32 noundef %32) #11
  tail call void @errfinish(ptr noundef nonnull @.str.2, i32 noundef 183, ptr noundef nonnull @__func__.ProcSignalInit) #11
  br label %34

34:                                               ; preds = %26, %30, %28
  %.ptr33 = getelementptr inbounds nuw i8, ptr %21, i64 12
  %35 = ptrtoint ptr %.ptr33 to i64
  %36 = and i64 %35, 7
  %37 = icmp eq i64 %36, 0
  br i1 %37, label %.preheader.preheader, label %40

.preheader.preheader:                             ; preds = %34
  %38 = mul nuw nsw i64 %20, 96
  %39 = or disjoint i64 %38, 20
  %scevgep = getelementptr i8, ptr %18, i64 %39
  tail call void @llvm.memset.p0.i64(ptr noundef nonnull align 8 dereferenceable(56) %scevgep, i8 0, i64 56, i1 false)
  br label %.loopexit

40:                                               ; preds = %34
  tail call void @llvm.memset.p0.i64(ptr noundef nonnull align 1 dereferenceable(56) %.ptr33, i8 0, i64 56, i1 false)
  br label %.loopexit

.loopexit:                                        ; preds = %.preheader.preheader, %40
  %41 = zext i1 %0 to i8
  %42 = getelementptr inbounds nuw i8, ptr %21, i64 80
  store volatile i32 0, ptr %42, align 4
  %43 = load ptr, ptr @ProcSignal, align 8
  %44 = load volatile i64, ptr %43, align 8
  %45 = getelementptr inbounds nuw i8, ptr %21, i64 72
  store volatile i64 %44, ptr %45, align 8
  %46 = getelementptr inbounds nuw i8, ptr %21, i64 4
  store i8 %41, ptr %46, align 4
  %47 = getelementptr inbounds nuw i8, ptr %21, i64 8
  store i32 %1, ptr %47, align 8
  %48 = load i32, ptr @MyProcPid, align 4
  store volatile i32 %48, ptr %21, align 4
  tail call void asm sideeffect "", "~{memory},~{dirflag},~{fpsr},~{flags}"() #11, !srcloc !11
  store i8 0, ptr %22, align 4
  store ptr %21, ptr @MyProcSignalSlot, align 8
  tail call void @on_shmem_exit(ptr noundef nonnull @CleanupProcSignalState, i64 noundef 0) #11
  ret void
}